; ModuleID = '21/229.c'
source_filename = "21/229.c"
target datalayout = "e-m:e-p270:32:32-p271:32:32-p272:64:64-i64:64-f80:128-n8:16:32:64-S128"
target triple = "x86_64-pc-linux-gnu"

@.str = private unnamed_addr constant [3 x i8] c"%d\00", align 1
@.str.1 = private unnamed_addr constant [4 x i8] c",%d\00", align 1

; Function Attrs: noinline nounwind uwtable
define dso_local i32 @main() #0 {
  %1 = alloca i32, align 4
  %2 = alloca [300 x i32], align 16
  %3 = alloca i32, align 4
  %4 = alloca i32, align 4
  %5 = alloca i32, align 4
  %6 = alloca [300 x i32], align 16
  %7 = alloca i32, align 4
  %8 = alloca i32, align 4
  %9 = alloca i32, align 4
  %10 = alloca float, align 4
  %11 = alloca float, align 4
  store i32 0, i32* %1, align 4
  store i32 0, i32* %5, align 4
  %12 = bitcast [300 x i32]* %6 to i8*
  call void @llvm.memset.p0i8.i64(i8* align 16 %12, i8 0, i64 1200, i1 false)
  store i32 0, i32* %7, align 4
  %13 = call i32 (i8*, ...) @__isoc99_scanf(i8* getelementptr inbounds ([3 x i8], [3 x i8]* @.str, i64 0, i64 0), i32* %3)
  store i32 0, i32* %4, align 4
  br label %14

14:                                               ; preds = %29, %0
  %15 = load i32, i32* %4, align 4
  %16 = load i32, i32* %3, align 4
  %17 = icmp slt i32 %15, %16
  br i1 %17, label %18, label %32

18:                                               ; preds = %14
  %19 = load i32, i32* %4, align 4
  %20 = sext i32 %19 to i64
  %21 = getelementptr inbounds [300 x i32], [300 x i32]* %2, i64 0, i64 %20
  %22 = call i32 (i8*, ...) @__isoc99_scanf(i8* getelementptr inbounds ([3 x i8], [3 x i8]* @.str, i64 0, i64 0), i32* %21)
  %23 = load i32, i32* %5, align 4
  %24 = load i32, i32* %4, align 4
  %25 = sext i32 %24 to i64
  %26 = getelementptr inbounds [300 x i32], [300 x i32]* %2, i64 0, i64 %25
  %27 = load i32, i32* %26, align 4
  %28 = add nsw i32 %23, %27
  store i32 %28, i32* %5, align 4
  br label %29

29:                                               ; preds = %18
  %30 = load i32, i32* %4, align 4
  %31 = add nsw i32 %30, 1
  store i32 %31, i32* %4, align 4
  br label %14

32:                                               ; preds = %14
  %33 = load i32, i32* %5, align 4
  %34 = sitofp i32 %33 to float
  %35 = load i32, i32* %3, align 4
  %36 = sitofp i32 %35 to float
  %37 = fdiv float %34, %36
  store float %37, float* %10, align 4
  %38 = load float, float* %10, align 4
  %39 = getelementptr inbounds [300 x i32], [300 x i32]* %2, i64 0, i64 0
  %40 = load i32, i32* %39, align 16
  %41 = sitofp i32 %40 to float
  %42 = fsub float %38, %41
  %43 = fpext float %42 to double
  %44 = call double @llvm.fabs.f64(double %43)
  %45 = fptrunc double %44 to float
  store float %45, float* %11, align 4
  %46 = getelementptr inbounds [300 x i32], [300 x i32]* %2, i64 0, i64 0
  %47 = load i32, i32* %46, align 16
  %48 = load i32, i32* %7, align 4
  %49 = sext i32 %48 to i64
  %50 = getelementptr inbounds [300 x i32], [300 x i32]* %6, i64 0, i64 %49
  store i32 %47, i32* %50, align 4
  store i32 1, i32* %4, align 4
  br label %51

51:                                               ; preds = %122, %32
  %52 = load i32, i32* %4, align 4
  %53 = load i32, i32* %3, align 4
  %54 = icmp slt i32 %52, %53
  br i1 %54, label %55, label %125

55:                                               ; preds = %51
  %56 = load float, float* %10, align 4
  %57 = load i32, i32* %4, align 4
  %58 = sext i32 %57 to i64
  %59 = getelementptr inbounds [300 x i32], [300 x i32]* %2, i64 0, i64 %58
  %60 = load i32, i32* %59, align 4
  %61 = sitofp i32 %60 to float
  %62 = fsub float %56, %61
  %63 = fpext float %62 to double
  %64 = call double @llvm.fabs.f64(double %63)
  %65 = load float, float* %11, align 4
  %66 = fpext float %65 to double
  %67 = fcmp oeq double %64, %66
  br i1 %67, label %68, label %78

68:                                               ; preds = %55
  %69 = load i32, i32* %7, align 4
  %70 = add nsw i32 %69, 1
  store i32 %70, i32* %7, align 4
  %71 = load i32, i32* %4, align 4
  %72 = sext i32 %71 to i64
  %73 = getelementptr inbounds [300 x i32], [300 x i32]* %2, i64 0, i64 %72
  %74 = load i32, i32* %73, align 4
  %75 = load i32, i32* %7, align 4
  %76 = sext i32 %75 to i64
  %77 = getelementptr inbounds [300 x i32], [300 x i32]* %6, i64 0, i64 %76
  store i32 %74, i32* %77, align 4
  br label %121

78:                                               ; preds = %55
  %79 = load float, float* %10, align 4
  %80 = load i32, i32* %4, align 4
  %81 = sext i32 %80 to i64
  %82 = getelementptr inbounds [300 x i32], [300 x i32]* %2, i64 0, i64 %81
  %83 = load i32, i32* %82, align 4
  %84 = sitofp i32 %83 to float
  %85 = fsub float %79, %84
  %86 = fpext float %85 to double
  %87 = call double @llvm.fabs.f64(double %86)
  %88 = load float, float* %11, align 4
  %89 = fpext float %88 to double
  %90 = fcmp ogt double %87, %89
  br i1 %90, label %91, label %120

91:                                               ; preds = %78
  %92 = load float, float* %10, align 4
  %93 = load i32, i32* %4, align 4
  %94 = sext i32 %93 to i64
  %95 = getelementptr inbounds [300 x i32], [300 x i32]* %2, i64 0, i64 %94
  %96 = load i32, i32* %95, align 4
  %97 = sitofp i32 %96 to float
  %98 = fsub float %92, %97
  %99 = fpext float %98 to double
  %100 = call double @llvm.fabs.f64(double %99)
  %101 = fptrunc double %100 to float
  store float %101, float* %11, align 4
  store i32 0, i32* %7, align 4
  %102 = load i32, i32* %4, align 4
  %103 = sext i32 %102 to i64
  %104 = getelementptr inbounds [300 x i32], [300 x i32]* %2, i64 0, i64 %103
  %105 = load i32, i32* %104, align 4
  %106 = load i32, i32* %7, align 4
  %107 = sext i32 %106 to i64
  %108 = getelementptr inbounds [300 x i32], [300 x i32]* %6, i64 0, i64 %107
  store i32 %105, i32* %108, align 4
  store i32 1, i32* %9, align 4
  br label %109

109:                                              ; preds = %116, %91
  %110 = load i32, i32* %9, align 4
  %111 = icmp slt i32 %110, 300
  br i1 %111, label %112, label %119

112:                                              ; preds = %109
  %113 = load i32, i32* %9, align 4
  %114 = sext i32 %113 to i64
  %115 = getelementptr inbounds [300 x i32], [300 x i32]* %6, i64 0, i64 %114
  store i32 0, i32* %115, align 4
  br label %116

116:                                              ; preds = %112
  %117 = load i32, i32* %9, align 4
  %118 = add nsw i32 %117, 1
  store i32 %118, i32* %9, align 4
  br label %109

119:                                              ; preds = %109
  br label %120

120:                                              ; preds = %119, %78
  br label %121

121:                                              ; preds = %120, %68
  br label %122

122:                                              ; preds = %121
  %123 = load i32, i32* %4, align 4
  %124 = add nsw i32 %123, 1
  store i32 %124, i32* %4, align 4
  br label %51

125:                                              ; preds = %51
  store i32 0, i32* %4, align 4
  br label %126

126:                                              ; preds = %171, %125
  %127 = load i32, i32* %4, align 4
  %128 = sext i32 %127 to i64
  %129 = getelementptr inbounds [300 x i32], [300 x i32]* %6, i64 0, i64 %128
  %130 = load i32, i32* %129, align 4
  %131 = icmp ne i32 %130, 0
  br i1 %131, label %132, label %174

132:                                              ; preds = %126
  %133 = load i32, i32* %4, align 4
  store i32 %133, i32* %7, align 4
  br label %134

134:                                              ; preds = %167, %132
  %135 = load i32, i32* %7, align 4
  %136 = sext i32 %135 to i64
  %137 = getelementptr inbounds [300 x i32], [300 x i32]* %6, i64 0, i64 %136
  %138 = load i32, i32* %137, align 4
  %139 = icmp ne i32 %138, 0
  br i1 %139, label %140, label %170

140:                                              ; preds = %134
  %141 = load i32, i32* %4, align 4
  %142 = sext i32 %141 to i64
  %143 = getelementptr inbounds [300 x i32], [300 x i32]* %6, i64 0, i64 %142
  %144 = load i32, i32* %143, align 4
  %145 = load i32, i32* %7, align 4
  %146 = sext i32 %145 to i64
  %147 = getelementptr inbounds [300 x i32], [300 x i32]* %6, i64 0, i64 %146
  %148 = load i32, i32* %147, align 4
  %149 = icmp sgt i32 %144, %148
  br i1 %149, label %150, label %166

150:                                              ; preds = %140
  %151 = load i32, i32* %4, align 4
  %152 = sext i32 %151 to i64
  %153 = getelementptr inbounds [300 x i32], [300 x i32]* %6, i64 0, i64 %152
  %154 = load i32, i32* %153, align 4
  store i32 %154, i32* %8, align 4
  %155 = load i32, i32* %7, align 4
  %156 = sext i32 %155 to i64
  %157 = getelementptr inbounds [300 x i32], [300 x i32]* %6, i64 0, i64 %156
  %158 = load i32, i32* %157, align 4
  %159 = load i32, i32* %4, align 4
  %160 = sext i32 %159 to i64
  %161 = getelementptr inbounds [300 x i32], [300 x i32]* %6, i64 0, i64 %160
  store i32 %158, i32* %161, align 4
  %162 = load i32, i32* %8, align 4
  %163 = load i32, i32* %7, align 4
  %164 = sext i32 %163 to i64
  %165 = getelementptr inbounds [300 x i32], [300 x i32]* %6, i64 0, i64 %164
  store i32 %162, i32* %165, align 4
  br label %166

166:                                              ; preds = %150, %140
  br label %167

167:                                              ; preds = %166
  %168 = load i32, i32* %7, align 4
  %169 = add nsw i32 %168, 1
  store i32 %169, i32* %7, align 4
  br label %134

170:                                              ; preds = %134
  br label %171

171:                                              ; preds = %170
  %172 = load i32, i32* %4, align 4
  %173 = add nsw i32 %172, 1
  store i32 %173, i32* %4, align 4
  br label %126

174:                                              ; preds = %126
  %175 = getelementptr inbounds [300 x i32], [300 x i32]* %6, i64 0, i64 0
  %176 = load i32, i32* %175, align 16
  %177 = call i32 (i8*, ...) @printf(i8* getelementptr inbounds ([3 x i8], [3 x i8]* @.str, i64 0, i64 0), i32 %176)
  store i32 1, i32* %4, align 4
  br label %178

178:                                              ; preds = %190, %174
  %179 = load i32, i32* %4, align 4
  %180 = sext i32 %179 to i64
  %181 = getelementptr inbounds [300 x i32], [300 x i32]* %6, i64 0, i64 %180
  %182 = load i32, i32* %181, align 4
  %183 = icmp ne i32 %182, 0
  br i1 %183, label %184, label %193

184:                                              ; preds = %178
  %185 = load i32, i32* %4, align 4
  %186 = sext i32 %185 to i64
  %187 = getelementptr inbounds [300 x i32], [300 x i32]* %6, i64 0, i64 %186
  %188 = load i32, i32* %187, align 4
  %189 = call i32 (i8*, ...) @printf(i8* getelementptr inbounds ([4 x i8], [4 x i8]* @.str.1, i64 0, i64 0), i32 %188)
  br label %190

190:                                              ; preds = %184
  %191 = load i32, i32* %4, align 4
  %192 = add nsw i32 %191, 1
  store i32 %192, i32* %4, align 4
  br label %178

193:                                              ; preds = %178
  %194 = load i32, i32* %1, align 4
  ret i32 %194
}

; Function Attrs: argmemonly nounwind willreturn
declare void @llvm.memset.p0i8.i64(i8* nocapture writeonly, i8, i64, i1 immarg) #1

declare dso_local i32 @__isoc99_scanf(i8*, ...) #2

; Function Attrs: nounwind readnone speculatable willreturn
declare double @llvm.fabs.f64(double) #3

declare dso_local i32 @printf(i8*, ...) #2


!llvm.module.flags = !{!0}
!llvm.ident = !{!1}

!0 = !{i32 1, !"wchar_size", i32 4}
!1 = !{!"clang version 10.0.0-4ubuntu1 "}
